target datalayout = "e-m:e-p270:32:32-p271:32:32-p272:64:64-i64:64-i128:128-f80:128-n8:16:32:64-S128"
target triple = "x86_64-pc-linux-gnu"

%"class.OpenImageIO::v3_1_0::basic_string_view" = type { ptr, i64 }

@_ZN11OpenImageIO6v3_1_012_GLOBAL__N_15c_locE = internal global ptr null, align 8

; Function Attrs: inlinehint mustprogress nounwind uwtable
define linkonce_odr hidden noundef i32 @_ZN11OpenImageIO6v3_1_07Strutil11strncasecmpEPKcS3_m(ptr noundef %0, ptr noundef %1, i64 noundef %2) #4 comdat {
  %4 = alloca ptr, align 8
  %5 = alloca ptr, align 8
  %6 = alloca i64, align 8
  store ptr %0, ptr %4, align 8, !tbaa !10
  store ptr %1, ptr %5, align 8, !tbaa !10
  store i64 %2, ptr %6, align 8, !tbaa !108
  %7 = load ptr, ptr %4, align 8, !tbaa !10
  %8 = load ptr, ptr %5, align 8, !tbaa !10
  %9 = load i64, ptr %6, align 8, !tbaa !108
  %10 = load ptr, ptr @_ZN11OpenImageIO6v3_1_012_GLOBAL__N_15c_locE, align 8, !tbaa !101
  %11 = call i32 @strncasecmp_l(ptr noundef %7, ptr noundef %8, i64 noundef %9, ptr noundef %10) #30
  ret i32 %11
}

; Function Attrs: mustprogress nounwind uwtable
define linkonce_odr hidden noundef zeroext i1 @_ZNK11OpenImageIO6v3_1_017basic_string_viewIcSt11char_traitsIcEE5emptyEv(ptr noundef nonnull align 8 dereferenceable(16) %0) #6 comdat align 2 {
  %2 = alloca ptr, align 8
  store ptr %0, ptr %2, align 8, !tbaa !103
  %3 = load ptr, ptr %2, align 8
  %4 = getelementptr inbounds nuw %"class.OpenImageIO::v3_1_0::basic_string_view", ptr %3, i32 0, i32 1
  %5 = load i64, ptr %4, align 8, !tbaa !105
  %6 = icmp eq i64 %5, 0
  ret i1 %6
}

; Function Attrs: mustprogress nounwind uwtable
define linkonce_odr hidden noundef i64 @_ZNK11OpenImageIO6v3_1_017basic_string_viewIcSt11char_traitsIcEE4sizeEv(ptr noundef nonnull align 8 dereferenceable(16) %0) #6 comdat align 2 {
  %2 = alloca ptr, align 8
  store ptr %0, ptr %2, align 8, !tbaa !103
  %3 = load ptr, ptr %2, align 8
  %4 = getelementptr inbounds nuw %"class.OpenImageIO::v3_1_0::basic_string_view", ptr %3, i32 0, i32 1
  %5 = load i64, ptr %4, align 8, !tbaa !105
  ret i64 %5
}

; Function Attrs: mustprogress nounwind uwtable
define linkonce_odr hidden noundef ptr @_ZNK11OpenImageIO6v3_1_017basic_string_viewIcSt11char_traitsIcEE4dataEv(ptr noundef nonnull align 8 dereferenceable(16) %0) #6 comdat align 2 {
  %2 = alloca ptr, align 8
  store ptr %0, ptr %2, align 8, !tbaa !103
  %3 = load ptr, ptr %2, align 8
  %4 = getelementptr inbounds nuw %"class.OpenImageIO::v3_1_0::basic_string_view", ptr %3, i32 0, i32 0
  %5 = load ptr, ptr %4, align 8, !tbaa !109
  ret ptr %5
}

; Function Attrs: mustprogress uwtable
define noundef i64 @_ZN11OpenImageIO6v3_1_07Strutil5ifindENS0_17basic_string_viewIcSt11char_traitsIcEEES5_(ptr noundef %0, ptr noundef %1) #7 {
  %3 = alloca i64, align 8
  %4 = alloca ptr, align 8
  %5 = alloca ptr, align 8
  %6 = alloca ptr, align 8
  %7 = alloca ptr, align 8
  %8 = alloca i32, align 4
  store ptr %0, ptr %4, align 8, !tbaa !103
  store ptr %1, ptr %5, align 8, !tbaa !103
  %9 = call noundef zeroext i1 @_ZNK11OpenImageIO6v3_1_017basic_string_viewIcSt11char_traitsIcEE5emptyEv(ptr noundef nonnull align 8 dereferenceable(16) %0) #3
  br i1 %9, label %10, label %11

10:                                               ; preds = %2
  store i64 -1, ptr %3, align 8
  br label %50

11:                                               ; preds = %2
  %12 = call noundef zeroext i1 @_ZNK11OpenImageIO6v3_1_017basic_string_viewIcSt11char_traitsIcEE5emptyEv(ptr noundef nonnull align 8 dereferenceable(16) %1) #3
  br i1 %12, label %13, label %14

13:                                               ; preds = %11
  store i64 0, ptr %3, align 8
  br label %50

14:                                               ; preds = %11
  %15 = call noundef i64 @_ZNK11OpenImageIO6v3_1_017basic_string_viewIcSt11char_traitsIcEE4sizeEv(ptr noundef nonnull align 8 dereferenceable(16) %1) #3
  %16 = call noundef i64 @_ZNK11OpenImageIO6v3_1_017basic_string_viewIcSt11char_traitsIcEE4sizeEv(ptr noundef nonnull align 8 dereferenceable(16) %0) #3
  %17 = icmp ule i64 %15, %16
  br i1 %17, label %18, label %49

18:                                               ; preds = %14
  call void @llvm.lifetime.start.p0(i64 8, ptr %6) #3
  %19 = call noundef ptr @_ZNK11OpenImageIO6v3_1_017basic_string_viewIcSt11char_traitsIcEE4dataEv(ptr noundef nonnull align 8 dereferenceable(16) %0) #3
  store ptr %19, ptr %6, align 8, !tbaa !10
  call void @llvm.lifetime.start.p0(i64 8, ptr %7) #3
  %20 = call noundef ptr @_ZNK11OpenImageIO6v3_1_017basic_string_viewIcSt11char_traitsIcEE4dataEv(ptr noundef nonnull align 8 dereferenceable(16) %0) #3
  %21 = call noundef i64 @_ZNK11OpenImageIO6v3_1_017basic_string_viewIcSt11char_traitsIcEE4sizeEv(ptr noundef nonnull align 8 dereferenceable(16) %0) #3
  %22 = getelementptr inbounds nuw i8, ptr %20, i64 %21
  %23 = call noundef i64 @_ZNK11OpenImageIO6v3_1_017basic_string_viewIcSt11char_traitsIcEE4sizeEv(ptr noundef nonnull align 8 dereferenceable(16) %1) #3
  %24 = sub i64 0, %23
  %25 = getelementptr inbounds i8, ptr %22, i64 %24
  store ptr %25, ptr %7, align 8, !tbaa !10
  br label %26

26:                                               ; preds = %42, %18
  %27 = load ptr, ptr %6, align 8, !tbaa !10
  %28 = load ptr, ptr %7, align 8, !tbaa !10
  %29 = icmp ule ptr %27, %28
  br i1 %29, label %30, label %45

30:                                               ; preds = %26
  %31 = load ptr, ptr %6, align 8, !tbaa !10
  %32 = call noundef ptr @_ZNK11OpenImageIO6v3_1_017basic_string_viewIcSt11char_traitsIcEE4dataEv(ptr noundef nonnull align 8 dereferenceable(16) %1) #3
  %33 = call noundef i64 @_ZNK11OpenImageIO6v3_1_017basic_string_viewIcSt11char_traitsIcEE4sizeEv(ptr noundef nonnull align 8 dereferenceable(16) %1) #3
  %34 = call noundef i32 @_ZN11OpenImageIO6v3_1_07Strutil11strncasecmpEPKcS3_m(ptr noundef %31, ptr noundef %32, i64 noundef %33)
  %35 = icmp eq i32 %34, 0
  br i1 %35, label %36, label %42

36:                                               ; preds = %30
  %37 = load ptr, ptr %6, align 8, !tbaa !10
  %38 = call noundef ptr @_ZNK11OpenImageIO6v3_1_017basic_string_viewIcSt11char_traitsIcEE4dataEv(ptr noundef nonnull align 8 dereferenceable(16) %0) #3
  %39 = ptrtoint ptr %37 to i64
  %40 = ptrtoint ptr %38 to i64
  %41 = sub i64 %39, %40
  store i64 %41, ptr %3, align 8
  store i32 1, ptr %8, align 4
  br label %46

42:                                               ; preds = %30
  %43 = load ptr, ptr %6, align 8, !tbaa !10
  %44 = getelementptr inbounds nuw i8, ptr %43, i32 1
  store ptr %44, ptr %6, align 8, !tbaa !10
  br label %26, !llvm.loop !186

45:                                               ; preds = %26
  store i32 0, ptr %8, align 4
  br label %46

46:                                               ; preds = %45, %36
  call void @llvm.lifetime.end.p0(i64 8, ptr %7) #3
  call void @llvm.lifetime.end.p0(i64 8, ptr %6) #3
  %47 = load i32, ptr %8, align 4
  switch i32 %47, label %52 [
    i32 0, label %48
    i32 1, label %50
  ]

48:                                               ; preds = %46
  br label %49

49:                                               ; preds = %48, %14
  store i64 -1, ptr %3, align 8
  br label %50

50:                                               ; preds = %49, %46, %13, %10
  %51 = load i64, ptr %3, align 8
  ret i64 %51

52:                                               ; preds = %46
  unreachable
}

; Function Attrs: mustprogress nounwind uwtable
define linkonce_odr hidden void @_ZN11OpenImageIO6v3_1_017basic_string_viewIcSt11char_traitsIcEEC2ERKS4_(ptr noundef nonnull align 8 dereferenceable(16) %0, ptr noundef nonnull align 8 dereferenceable(16) %1) unnamed_addr #6 comdat align 2 {
  %3 = alloca ptr, align 8
  %4 = alloca ptr, align 8
  store ptr %0, ptr %3, align 8, !tbaa !103
  store ptr %1, ptr %4, align 8, !tbaa !103
  %5 = load ptr, ptr %3, align 8
  %6 = getelementptr inbounds nuw %"class.OpenImageIO::v3_1_0::basic_string_view", ptr %5, i32 0, i32 0
  %7 = load ptr, ptr %4, align 8, !tbaa !103
  %8 = call noundef ptr @_ZNK11OpenImageIO6v3_1_017basic_string_viewIcSt11char_traitsIcEE4dataEv(ptr noundef nonnull align 8 dereferenceable(16) %7) #3
  store ptr %8, ptr %6, align 8, !tbaa !109
  %9 = getelementptr inbounds nuw %"class.OpenImageIO::v3_1_0::basic_string_view", ptr %5, i32 0, i32 1
  %10 = load ptr, ptr %4, align 8, !tbaa !103
  %11 = call noundef i64 @_ZNK11OpenImageIO6v3_1_017basic_string_viewIcSt11char_traitsIcEE4sizeEv(ptr noundef nonnull align 8 dereferenceable(16) %10) #3
  store i64 %11, ptr %9, align 8, !tbaa !105
  ret void
}

; Function Attrs: mustprogress uwtable
define noundef zeroext i1 @_ZN11OpenImageIO6v3_1_07Strutil9icontainsENS0_17basic_string_viewIcSt11char_traitsIcEEES5_(ptr noundef %0, ptr noundef %1) #7 {
  %3 = alloca ptr, align 8
  %4 = alloca ptr, align 8
  %5 = alloca %"class.OpenImageIO::v3_1_0::basic_string_view", align 8
  %6 = alloca %"class.OpenImageIO::v3_1_0::basic_string_view", align 8
  store ptr %0, ptr %3, align 8, !tbaa !103
  store ptr %1, ptr %4, align 8, !tbaa !103
  call void @_ZN11OpenImageIO6v3_1_017basic_string_viewIcSt11char_traitsIcEEC2ERKS4_(ptr noundef nonnull align 8 dereferenceable(16) %5, ptr noundef nonnull align 8 dereferenceable(16) %0)
  call void @_ZN11OpenImageIO6v3_1_017basic_string_viewIcSt11char_traitsIcEEC2ERKS4_(ptr noundef nonnull align 8 dereferenceable(16) %6, ptr noundef nonnull align 8 dereferenceable(16) %1)
  %7 = call noundef i64 @_ZN11OpenImageIO6v3_1_07Strutil5ifindENS0_17basic_string_viewIcSt11char_traitsIcEEES5_(ptr noundef %5, ptr noundef %6)
  %8 = icmp ne i64 %7, -1
  ret i1 %8
}