; Function Attrs: mustprogress nofree nounwind willreturn memory(read) uwtable
define noundef zeroext i1 @_ZN11OpenImageIO6v3_1_07Strutil9icontainsENS0_17basic_string_viewIcSt11char_traitsIcEEES5_(ptr noundef readonly captures(none) %0, ptr noundef readonly captures(none) %1) local_unnamed_addr #22 {
  %3 = load ptr, ptr %0, align 8, !tbaa !67
  %4 = getelementptr inbounds nuw i8, ptr %0, i64 8
  %5 = load i64, ptr %4, align 8, !tbaa !64
  %6 = load ptr, ptr %1, align 8, !tbaa !67
  %7 = getelementptr inbounds nuw i8, ptr %1, i64 8
  %8 = load i64, ptr %7, align 8, !tbaa !64
  %9 = icmp eq i64 %5, 0
  br i1 %9, label %_ZN11OpenImageIO6v3_1_07Strutil5ifindENS0_17basic_string_viewIcSt11char_traitsIcEEES5_.exit, label %10

10:                                               ; preds = %2
  %11 = icmp eq i64 %8, 0
  br i1 %11, label %_ZN11OpenImageIO6v3_1_07Strutil5ifindENS0_17basic_string_viewIcSt11char_traitsIcEEES5_.exit, label %12

12:                                               ; preds = %10
  %.not.i = icmp ugt i64 %8, %5
  br i1 %.not.i, label %_ZN11OpenImageIO6v3_1_07Strutil5ifindENS0_17basic_string_viewIcSt11char_traitsIcEEES5_.exit, label %13

13:                                               ; preds = %12
  %14 = getelementptr inbounds nuw i8, ptr %3, i64 %5
  %15 = sub i64 0, %8
  %16 = getelementptr inbounds i8, ptr %14, i64 %15
  %.not8.not12.i = icmp ugt ptr %3, %16
  br i1 %.not8.not12.i, label %_ZN11OpenImageIO6v3_1_07Strutil5ifindENS0_17basic_string_viewIcSt11char_traitsIcEEES5_.exit, label %.lr.ph.i

.lr.ph.i:                                         ; preds = %13
  %17 = load ptr, ptr @_ZN11OpenImageIO6v3_1_012_GLOBAL__N_15c_locE, align 8, !tbaa !232
  br label %18

18:                                               ; preds = %21, %.lr.ph.i
  %.0713.i = phi ptr [ %3, %.lr.ph.i ], [ %22, %21 ]
  %19 = tail call noundef i32 @strncasecmp_l(ptr noundef %.0713.i, ptr noundef %6, i64 noundef %8, ptr noundef %17) #49
  %20 = icmp eq i32 %19, 0
  br i1 %20, label %23, label %21

21:                                               ; preds = %18
  %22 = getelementptr inbounds nuw i8, ptr %.0713.i, i64 1
  %.not8.not.i = icmp ugt ptr %22, %16
  br i1 %.not8.not.i, label %_ZN11OpenImageIO6v3_1_07Strutil5ifindENS0_17basic_string_viewIcSt11char_traitsIcEEES5_.exit, label %18, !llvm.loop !234

23:                                               ; preds = %18
  %24 = ptrtoint ptr %.0713.i to i64
  %25 = ptrtoint ptr %3 to i64
  %26 = sub i64 %24, %25
  %27 = icmp ne i64 %26, -1
  br label %_ZN11OpenImageIO6v3_1_07Strutil5ifindENS0_17basic_string_viewIcSt11char_traitsIcEEES5_.exit

_ZN11OpenImageIO6v3_1_07Strutil5ifindENS0_17basic_string_viewIcSt11char_traitsIcEEES5_.exit: ; preds = %21, %2, %10, %12, %13, %23
  %.06.i = phi i1 [ %27, %23 ], [ false, %2 ], [ true, %10 ], [ false, %12 ], [ false, %13 ], [ false, %21 ]
  ret i1 %.06.i
}